; Function Attrs: mustprogress nounwind uwtable
define internal void @_ZN9grpc_core12_GLOBAL__N_122XdsServerConfigFetcher15ListenerWatcher23FilterChainMatchManager38DynamicXdsServerConfigSelectorProvider18RouteConfigWatcherD2Ev(ptr nocapture noundef nonnull align 8 dereferenceable(24) %this) unnamed_addr #7 align 2 personality ptr @__gxx_personality_v0 {
entry:
  store ptr getelementptr inbounds ({ [8 x ptr] }, ptr @_ZTVN9grpc_core12_GLOBAL__N_122XdsServerConfigFetcher15ListenerWatcher23FilterChainMatchManager38DynamicXdsServerConfigSelectorProvider18RouteConfigWatcherE, i64 0, i32 0, i64 2), ptr %this, align 8
  %parent_ = getelementptr inbounds i8, ptr %this, i64 16
  %parent_.val = load ptr, ptr %parent_, align 8
  %cmp.not.i = icmp eq ptr %parent_.val, null
  br i1 %cmp.not.i, label %_ZN9grpc_core17WeakRefCountedPtrINS_12_GLOBAL__N_122XdsServerConfigFetcher15ListenerWatcher23FilterChainMatchManager38DynamicXdsServerConfigSelectorProviderEED2Ev.exit, label %if.then.i

if.then.i:                                        ; preds = %entry
  %refs_.i.i = getelementptr inbounds i8, ptr %parent_.val, i64 8
  %0 = atomicrmw sub ptr %refs_.i.i, i64 1 acq_rel, align 8
  %cmp.not.i.i = icmp eq i64 %0, 1
  br i1 %cmp.not.i.i, label %delete.notnull.i.i, label %_ZN9grpc_core17WeakRefCountedPtrINS_12_GLOBAL__N_122XdsServerConfigFetcher15ListenerWatcher23FilterChainMatchManager38DynamicXdsServerConfigSelectorProviderEED2Ev.exit

delete.notnull.i.i:                               ; preds = %if.then.i
  %vtable.i.i = load ptr, ptr %parent_.val, align 8
  %vfn.i.i = getelementptr inbounds i8, ptr %vtable.i.i, i64 16
  %1 = load ptr, ptr %vfn.i.i, align 8
  tail call void %1(ptr noundef nonnull align 8 dereferenceable(16) %parent_.val) #26
  br label %_ZN9grpc_core17WeakRefCountedPtrINS_12_GLOBAL__N_122XdsServerConfigFetcher15ListenerWatcher23FilterChainMatchManager38DynamicXdsServerConfigSelectorProviderEED2Ev.exit

_ZN9grpc_core17WeakRefCountedPtrINS_12_GLOBAL__N_122XdsServerConfigFetcher15ListenerWatcher23FilterChainMatchManager38DynamicXdsServerConfigSelectorProviderEED2Ev.exit: ; preds = %entry, %if.then.i, %delete.notnull.i.i
  ret void
}